; Function Attrs: mustprogress uwtable
define dso_local void @_ZN28b3SortedOverlappingPairCache37removeOverlappingPairsContainingProxyEiP12b3Dispatcher(ptr noundef nonnull align 8 dereferenceable(56) %0, i32 noundef %1, ptr noundef %2) unnamed_addr #0 align 2 personality ptr @__gxx_personality_v0 {
  %4 = alloca %class.RemovePairCallback.4, align 8
  call void @llvm.lifetime.start.p0(i64 16, ptr nonnull %4) #14
  store ptr getelementptr inbounds nuw inrange(-16, 24) (i8, ptr @_ZTVZN28b3SortedOverlappingPairCache37removeOverlappingPairsContainingProxyEiP12b3DispatcherE18RemovePairCallback, i64 16), ptr %4, align 8, !tbaa !4
  %5 = getelementptr inbounds nuw i8, ptr %4, i64 8
  store i32 %1, ptr %5, align 8, !tbaa !66
  %6 = load ptr, ptr %0, align 8, !tbaa !4
  %7 = getelementptr inbounds nuw i8, ptr %6, i64 72
  %8 = load ptr, ptr %7, align 8
  call void %8(ptr noundef nonnull align 8 dereferenceable(56) %0, ptr noundef nonnull %4, ptr noundef %2)
  call void @llvm.lifetime.end.p0(i64 16, ptr nonnull %4) #14
  ret void
}